; Function Attrs: mustprogress nofree norecurse nosync nounwind willreturn memory(argmem: write) uwtable
define dso_local void @sha256_init(ptr noundef writeonly captures(none) initializes((64, 68), (72, 112)) %0) local_unnamed_addr #2 {
  %2 = getelementptr inbounds nuw i8, ptr %0, i64 64
  store i32 0, ptr %2, align 8, !tbaa !14
  %3 = getelementptr inbounds nuw i8, ptr %0, i64 72
  store i64 0, ptr %3, align 8, !tbaa !17
  %4 = getelementptr inbounds nuw i8, ptr %0, i64 80
  store i32 1779033703, ptr %4, align 8, !tbaa !5
  %5 = getelementptr inbounds nuw i8, ptr %0, i64 84
  store i32 -1150833019, ptr %5, align 4, !tbaa !5
  %6 = getelementptr inbounds nuw i8, ptr %0, i64 88
  store i32 1013904242, ptr %6, align 8, !tbaa !5
  %7 = getelementptr inbounds nuw i8, ptr %0, i64 92
  store i32 -1521486534, ptr %7, align 4, !tbaa !5
  %8 = getelementptr inbounds nuw i8, ptr %0, i64 96
  store i32 1359893119, ptr %8, align 8, !tbaa !5
  %9 = getelementptr inbounds nuw i8, ptr %0, i64 100
  store i32 -1694144372, ptr %9, align 4, !tbaa !5
  %10 = getelementptr inbounds nuw i8, ptr %0, i64 104
  store i32 528734635, ptr %10, align 8, !tbaa !5
  %11 = getelementptr inbounds nuw i8, ptr %0, i64 108
  store i32 1541459225, ptr %11, align 4, !tbaa !5
  ret void
}